target datalayout = "e-m:e-p270:32:32-p271:32:32-p272:64:64-i64:64-i128:128-f80:128-n8:16:32:64-S128"
target triple = "x86_64-pc-linux-gnu"

%struct.GCstr = type { %struct.GCRef, i8, i8, i8, i8, i32, i32, i32 }
%struct.GCRef = type { i64 }

; Function Attrs: nounwind uwtable
define hidden i32 @lj_cparse_case(ptr noundef %0, ptr noundef %1) #0 {
  %3 = alloca i32, align 4
  %4 = alloca ptr, align 8
  %5 = alloca ptr, align 8
  %6 = alloca i32, align 4
  %7 = alloca i32, align 4
  %8 = alloca i32, align 4
  store ptr %0, ptr %4, align 8, !tbaa !4
  store ptr %1, ptr %5, align 8, !tbaa !9
  call void @llvm.lifetime.start.p0(i64 4, ptr %6) #13
  call void @llvm.lifetime.start.p0(i64 4, ptr %7) #13
  store i32 0, ptr %7, align 4, !tbaa !11
  br label %9

9:                                                ; preds = %32, %2
  %10 = load ptr, ptr %5, align 8, !tbaa !9
  %11 = getelementptr inbounds nuw i8, ptr %10, i32 1
  store ptr %11, ptr %5, align 8, !tbaa !9
  %12 = load i8, ptr %10, align 1, !tbaa !13
  %13 = sext i8 %12 to i32
  store i32 %13, ptr %6, align 4, !tbaa !11
  %14 = icmp ne i32 %13, 0
  br i1 %14, label %15, label %39

15:                                               ; preds = %9
  %16 = load ptr, ptr %4, align 8, !tbaa !4
  %17 = getelementptr inbounds nuw %struct.GCstr, ptr %16, i32 0, i32 7
  %18 = load i32, ptr %17, align 4, !tbaa !14
  %19 = load i32, ptr %6, align 4, !tbaa !11
  %20 = icmp eq i32 %18, %19
  br i1 %20, label %21, label %31

21:                                               ; preds = %15
  %22 = load ptr, ptr %5, align 8, !tbaa !9
  %23 = load ptr, ptr %4, align 8, !tbaa !4
  %24 = getelementptr inbounds %struct.GCstr, ptr %23, i64 1
  %25 = load i32, ptr %6, align 4, !tbaa !11
  %26 = zext i32 %25 to i64
  %27 = call i32 @memcmp(ptr noundef %22, ptr noundef %24, i64 noundef %26) #14
  %28 = icmp ne i32 %27, 0
  br i1 %28, label %31, label %29

29:                                               ; preds = %21
  %30 = load i32, ptr %7, align 4, !tbaa !11
  store i32 %30, ptr %3, align 4
  store i32 1, ptr %8, align 4
  br label %40

31:                                               ; preds = %21, %15
  br label %32

32:                                               ; preds = %31
  %33 = load i32, ptr %7, align 4, !tbaa !11
  %34 = add nsw i32 %33, 1
  store i32 %34, ptr %7, align 4, !tbaa !11
  %35 = load i32, ptr %6, align 4, !tbaa !11
  %36 = load ptr, ptr %5, align 8, !tbaa !9
  %37 = zext i32 %35 to i64
  %38 = getelementptr inbounds nuw i8, ptr %36, i64 %37
  store ptr %38, ptr %5, align 8, !tbaa !9
  br label %9, !llvm.loop !18

39:                                               ; preds = %9
  store i32 -1, ptr %3, align 4
  store i32 1, ptr %8, align 4
  br label %40

40:                                               ; preds = %39, %29
  call void @llvm.lifetime.end.p0(i64 4, ptr %7) #13
  call void @llvm.lifetime.end.p0(i64 4, ptr %6) #13
  %41 = load i32, ptr %3, align 4
  ret i32 %41
}