; Function Attrs: nofree nounwind memory(argmem: read) uwtable
define hidden i32 @lj_cparse_case(ptr noundef readonly captures(none) %0, ptr noundef readonly captures(none) %1) local_unnamed_addr #0 {
  %3 = getelementptr inbounds nuw i8, ptr %0, i64 24
  %4 = load i8, ptr %1, align 1, !tbaa !4
  %.not14 = icmp eq i8 %4, 0
  br i1 %.not14, label %._crit_edge, label %.lr.ph

.lr.ph:                                           ; preds = %2
  %5 = getelementptr inbounds nuw i8, ptr %0, i64 20
  %6 = load i32, ptr %5, align 4, !tbaa !7
  %7 = zext i32 %6 to i64
  br label %8

8:                                                ; preds = %.lr.ph, %13
  %.in = phi i8 [ %4, %.lr.ph ], [ %17, %13 ]
  %.pn = phi ptr [ %1, %.lr.ph ], [ %16, %13 ]
  %.015 = phi i32 [ 0, %.lr.ph ], [ %14, %13 ]
  %9 = getelementptr inbounds nuw i8, ptr %.pn, i64 1
  %10 = sext i8 %.in to i32
  %11 = icmp eq i32 %6, %10
  br i1 %11, label %12, label %13

12:                                               ; preds = %8
  %bcmp = tail call i32 @bcmp(ptr nonnull %9, ptr nonnull %3, i64 %7)
  %.not13 = icmp eq i32 %bcmp, 0
  br i1 %.not13, label %._crit_edge, label %13

13:                                               ; preds = %8, %12
  %14 = add nuw nsw i32 %.015, 1
  %15 = zext i32 %10 to i64
  %16 = getelementptr inbounds nuw i8, ptr %9, i64 %15
  %17 = load i8, ptr %16, align 1, !tbaa !4
  %.not = icmp eq i8 %17, 0
  br i1 %.not, label %._crit_edge, label %8, !llvm.loop !12

._crit_edge:                                      ; preds = %12, %13, %2
  %.010 = phi i32 [ -1, %2 ], [ -1, %13 ], [ %.015, %12 ]
  ret i32 %.010
}